target datalayout = "e-m:e-p270:32:32-p271:32:32-p272:64:64-i64:64-i128:128-f80:128-n8:16:32:64-S128"
target triple = "x86_64-pc-linux-gnu"

%struct.cli_crt_t = type { ptr, [64 x i8], [64 x i8], [64 x i8], [20 x i8], [20 x i8], [20 x i8], i32, [64 x i8], ptr, ptr, ptr, i64, i64, i32, i32, i32, i32, i32, ptr, ptr }
%struct.crtmgr = type { ptr, i32 }
%struct.cl_engine = type { i32, i32, i32, [2 x i32], i32, i32, i32, ptr, i32, i64, i32, i32, i64, i64, i32, i32, i32, i32, ptr, ptr, ptr, ptr, ptr, ptr, ptr, ptr, ptr, ptr, ptr, ptr, ptr, ptr, ptr, ptr, ptr, ptr, ptr, i64, ptr, %struct.crtmgr, ptr, ptr, ptr, ptr, ptr, ptr, ptr, ptr, ptr, ptr, ptr, ptr, ptr, ptr, ptr, ptr, ptr, %struct.cli_all_bc, [7 x ptr], [7 x i32], i32, i32, i32, i32, i64, i64, i64, i64, i64, ptr, ptr, ptr, ptr, ptr, ptr, ptr, ptr, ptr, i32, i32, i32, i64, i64, i64, ptr }
%struct.cli_all_bc = type { ptr, i32, ptr, %struct.cli_environment, i32 }
%struct.cli_environment = type { i32, i32, i32, i32, i32, i32, i32, [65 x i8], [65 x i8], [65 x i8], [65 x i8], [65 x i8], [65 x i8], [65 x i8], i8, i8, i8, i8, i8, i8, i8, i8, i8 }

; Function Attrs: nounwind uwtable
define void @crtmgr_free(ptr noundef %0) #0 {
  %2 = alloca ptr, align 8
  store ptr %0, ptr %2, align 8
  br label %3

3:                                                ; preds = %8, %1
  %4 = load ptr, ptr %2, align 8
  %5 = getelementptr inbounds %struct.crtmgr, ptr %4, i32 0, i32 1
  %6 = load i32, ptr %5, align 8
  %7 = icmp ne i32 %6, 0
  br i1 %7, label %8, label %13

8:                                                ; preds = %3
  %9 = load ptr, ptr %2, align 8
  %10 = load ptr, ptr %2, align 8
  %11 = getelementptr inbounds %struct.crtmgr, ptr %10, i32 0, i32 0
  %12 = load ptr, ptr %11, align 8
  call void @crtmgr_del(ptr noundef %9, ptr noundef %12)
  br label %3

13:                                               ; preds = %3
  ret void
}

; Function Attrs: nounwind uwtable
define i32 @crtmgr_add_roots(ptr noundef %0, ptr noundef %1, i32 noundef %2) #0 {
  %4 = alloca i32, align 4
  %5 = alloca ptr, align 8
  %6 = alloca ptr, align 8
  %7 = alloca i32, align 4
  %8 = alloca ptr, align 8
  store ptr %0, ptr %5, align 8
  store ptr %1, ptr %6, align 8
  store i32 %2, ptr %7, align 4
  %9 = load ptr, ptr %6, align 8
  %10 = load ptr, ptr %5, align 8
  %11 = getelementptr inbounds %struct.cl_engine, ptr %10, i32 0, i32 39
  %12 = icmp ne ptr %9, %11
  br i1 %12, label %13, label %42

13:                                               ; preds = %3
  %14 = load ptr, ptr %5, align 8
  %15 = getelementptr inbounds %struct.cl_engine, ptr %14, i32 0, i32 39
  %16 = getelementptr inbounds %struct.crtmgr, ptr %15, i32 0, i32 0
  %17 = load ptr, ptr %16, align 8
  store ptr %17, ptr %8, align 8
  br label %18

18:                                               ; preds = %37, %13
  %19 = load ptr, ptr %8, align 8
  %20 = icmp ne ptr %19, null
  br i1 %20, label %21, label %41

21:                                               ; preds = %18
  %22 = load i32, ptr %7, align 4
  %23 = icmp ne i32 %22, 0
  br i1 %23, label %24, label %30

24:                                               ; preds = %21
  %25 = load ptr, ptr %8, align 8
  %26 = getelementptr inbounds %struct.cli_crt_t, ptr %25, i32 0, i32 18
  %27 = load i32, ptr %26, align 8
  %28 = icmp ne i32 %27, 0
  br i1 %28, label %29, label %30

29:                                               ; preds = %24
  br label %37

30:                                               ; preds = %24, %21
  %31 = load ptr, ptr %6, align 8
  %32 = load ptr, ptr %8, align 8
  %33 = call zeroext i1 @crtmgr_add(ptr noundef %31, ptr noundef %32)
  br i1 %33, label %34, label %36

34:                                               ; preds = %30
  %35 = load ptr, ptr %6, align 8
  call void @crtmgr_free(ptr noundef %35)
  store i32 1, ptr %4, align 4
  br label %43

36:                                               ; preds = %30
  br label %37

37:                                               ; preds = %36, %29
  %38 = load ptr, ptr %8, align 8
  %39 = getelementptr inbounds %struct.cli_crt_t, ptr %38, i32 0, i32 20
  %40 = load ptr, ptr %39, align 8
  store ptr %40, ptr %8, align 8
  br label %18

41:                                               ; preds = %18
  store i32 0, ptr %4, align 4
  br label %43

42:                                               ; preds = %3
  store i32 0, ptr %4, align 4
  br label %43

43:                                               ; preds = %42, %41, %34
  %44 = load i32, ptr %4, align 4
  ret i32 %44
}