; Function Attrs: nounwind uwtable
define noundef i32 @crtmgr_add_roots(ptr noundef readonly %0, ptr noundef %1, i32 noundef %2) local_unnamed_addr #0 {
  %4 = getelementptr inbounds i8, ptr %0, i64 264
  %.not = icmp eq ptr %4, %1
  br i1 %.not, label %crtmgr_free.exit, label %.preheader

.preheader:                                       ; preds = %3
  %.017 = load ptr, ptr %4, align 8
  %.not1318 = icmp eq ptr %.017, null
  br i1 %.not1318, label %crtmgr_free.exit, label %.lr.ph

.lr.ph:                                           ; preds = %.preheader
  %.not14 = icmp eq i32 %2, 0
  br i1 %.not14, label %.lr.ph.split.us, label %.lr.ph.split

.lr.ph.split.us:                                  ; preds = %.lr.ph, %6
  %.019.us = phi ptr [ %.0.us, %6 ], [ %.017, %.lr.ph ]
  %5 = tail call zeroext i1 @crtmgr_add(ptr noundef %1, ptr noundef nonnull %.019.us)
  br i1 %5, label %.split.us, label %6

6:                                                ; preds = %.lr.ph.split.us
  %7 = getelementptr inbounds i8, ptr %.019.us, i64 400
  %.0.us = load ptr, ptr %7, align 8
  %.not13.us = icmp eq ptr %.0.us, null
  br i1 %.not13.us, label %crtmgr_free.exit, label %.lr.ph.split.us

.lr.ph.split:                                     ; preds = %.lr.ph, %16
  %.019 = phi ptr [ %.0, %16 ], [ %.017, %.lr.ph ]
  %8 = getelementptr inbounds i8, ptr %.019, i64 384
  %9 = load i32, ptr %8, align 8
  %.not15 = icmp eq i32 %9, 0
  br i1 %.not15, label %10, label %16

10:                                               ; preds = %.lr.ph.split
  %11 = tail call zeroext i1 @crtmgr_add(ptr noundef %1, ptr noundef nonnull %.019)
  br i1 %11, label %.split.us, label %16

.split.us:                                        ; preds = %10, %.lr.ph.split.us
  %12 = getelementptr inbounds i8, ptr %1, i64 8
  %13 = load i32, ptr %12, align 8
  %.not3.i = icmp eq i32 %13, 0
  br i1 %.not3.i, label %crtmgr_free.exit, label %.lr.ph.i

.lr.ph.i:                                         ; preds = %.split.us, %.lr.ph.i
  %14 = load ptr, ptr %1, align 8
  tail call void @crtmgr_del(ptr noundef nonnull %1, ptr noundef %14)
  %15 = load i32, ptr %12, align 8
  %.not.i = icmp eq i32 %15, 0
  br i1 %.not.i, label %crtmgr_free.exit, label %.lr.ph.i

16:                                               ; preds = %10, %.lr.ph.split
  %17 = getelementptr inbounds i8, ptr %.019, i64 400
  %.0 = load ptr, ptr %17, align 8
  %.not13 = icmp eq ptr %.0, null
  br i1 %.not13, label %crtmgr_free.exit, label %.lr.ph.split

crtmgr_free.exit:                                 ; preds = %16, %6, %.lr.ph.i, %.preheader, %.split.us, %3
  %.010 = phi i32 [ 0, %3 ], [ 1, %.split.us ], [ 0, %.preheader ], [ 1, %.lr.ph.i ], [ 0, %6 ], [ 0, %16 ]
  ret i32 %.010
}